target datalayout = "e-m:e-p270:32:32-p271:32:32-p272:64:64-i64:64-i128:128-f80:128-n8:16:32:64-S128"
target triple = "x86_64-pc-linux-gnu"

%struct.AVRational = type { i32, i32 }
%struct.MovieStream = type { ptr, ptr, ptr, i64, i64, ptr, i32 }
%struct.AVChannelLayout = type { i32, i32, %union.anon.2, ptr }
%union.anon.2 = type { i64 }
%struct.AVFilterFormatsConfig = type { ptr, ptr, ptr, ptr, ptr }
%struct.AVFilterLink = type { ptr, ptr, ptr, ptr, i32, i32, i32, i32, %struct.AVRational, i32, i32, i32, %struct.AVChannelLayout, %struct.AVRational, ptr, i32, %struct.AVFilterFormatsConfig, %struct.AVFilterFormatsConfig }
%struct.AVCodecContext = type { ptr, i32, i32, ptr, i32, i32, ptr, ptr, ptr, i64, i32, i32, ptr, i32, %struct.AVRational, %struct.AVRational, %struct.AVRational, i32, i32, i32, i32, i32, %struct.AVRational, i32, i32, i32, i32, i32, i32, i32, i32, i32, i32, i32, ptr, ptr, i32, float, float, float, float, float, float, float, float, float, i32, i32, i32, i32, i32, i32, i32, i32, i32, i32, i32, i32, ptr, ptr, ptr, i32, i32, i32, i32, i32, i32, i32, i32, i32, i32, %struct.AVChannelLayout, i32, i32, i32, i32, i32, i32, i32, i32, ptr, i32, i32, i32, float, float, i32, i32, i32, i32, i32, ptr, i64, i64, float, float, i32, i32, ptr, ptr, i32, i32, i32, i32, i32, ptr, ptr, ptr, ptr, i32, i32, [8 x i64], i32, i32, i32, i32, i32, i32, i32, ptr, ptr, i32, i32, i32, i32, i32, i32, i32, i32, i32, i32, ptr, ptr, i32, i32, ptr, ptr, ptr, ptr, i32, i32, i64, i32, i32, i64, ptr, i64, ptr, i32, ptr, i32 }
%struct.AVFrame = type { [8 x ptr], [8 x i32], ptr, i32, i32, i32, i32, i32, %struct.AVRational, i64, i64, %struct.AVRational, i32, ptr, i32, i32, [8 x ptr], ptr, i32, ptr, i32, i32, i32, i32, i32, i32, i32, i64, ptr, i32, ptr, ptr, i64, i64, i64, i64, ptr, %struct.AVChannelLayout, i64 }
%struct.AVCodec = type { ptr, ptr, i32, i32, i32, i8, ptr, ptr, ptr, ptr, ptr, ptr, ptr, ptr }

; Function Attrs: nounwind uwtable
define internal i32 @get_buffer(ptr noundef %0, ptr noundef %1, i32 noundef %2) #1 {
  %4 = alloca i32, align 4
  %5 = alloca ptr, align 8
  %6 = alloca ptr, align 8
  %7 = alloca i32, align 4
  %8 = alloca [8 x i32], align 16
  %9 = alloca ptr, align 8
  %10 = alloca ptr, align 8
  %11 = alloca i32, align 4
  %12 = alloca i32, align 4
  %13 = alloca i32, align 4
  %14 = alloca i32, align 4
  %15 = alloca i32, align 4
  %16 = alloca ptr, align 8
  %17 = alloca i32, align 4
  store ptr %0, ptr %5, align 8, !tbaa !162
  store ptr %1, ptr %6, align 8, !tbaa !163
  store i32 %2, ptr %7, align 4, !tbaa !26
  call void @llvm.lifetime.start.p0(i64 32, ptr %8) #11
  call void @llvm.lifetime.start.p0(i64 8, ptr %9) #11
  %18 = load ptr, ptr %5, align 8, !tbaa !162
  %19 = getelementptr inbounds nuw %struct.AVCodecContext, ptr %18, i32 0, i32 8
  %20 = load ptr, ptr %19, align 8, !tbaa !152
  store ptr %20, ptr %9, align 8, !tbaa !105
  call void @llvm.lifetime.start.p0(i64 8, ptr %10) #11
  %21 = load ptr, ptr %9, align 8, !tbaa !105
  %22 = getelementptr inbounds nuw %struct.MovieStream, ptr %21, i32 0, i32 0
  %23 = load ptr, ptr %22, align 8, !tbaa !147
  store ptr %23, ptr %10, align 8, !tbaa !120
  call void @llvm.lifetime.start.p0(i64 4, ptr %11) #11
  call void @llvm.lifetime.start.p0(i64 4, ptr %12) #11
  call void @llvm.lifetime.start.p0(i64 4, ptr %13) #11
  call void @llvm.lifetime.start.p0(i64 4, ptr %14) #11
  call void @llvm.lifetime.start.p0(i64 4, ptr %15) #11
  store i32 0, ptr %15, align 4, !tbaa !26
  call void @llvm.lifetime.start.p0(i64 8, ptr %16) #11
  %24 = load ptr, ptr %6, align 8, !tbaa !163
  %25 = getelementptr inbounds nuw %struct.AVFrame, ptr %24, i32 0, i32 4
  %26 = load i32, ptr %25, align 4, !tbaa !164
  store i32 %26, ptr %14, align 4, !tbaa !26
  store i32 %26, ptr %12, align 4, !tbaa !26
  %27 = load ptr, ptr %6, align 8, !tbaa !163
  %28 = getelementptr inbounds nuw %struct.AVFrame, ptr %27, i32 0, i32 3
  %29 = load i32, ptr %28, align 8, !tbaa !168
  store i32 %29, ptr %13, align 4, !tbaa !26
  store i32 %29, ptr %11, align 4, !tbaa !26
  %30 = load ptr, ptr %6, align 8, !tbaa !163
  %31 = getelementptr inbounds nuw %struct.AVFrame, ptr %30, i32 0, i32 6
  %32 = load i32, ptr %31, align 4, !tbaa !169
  %33 = load ptr, ptr %10, align 8, !tbaa !120
  %34 = getelementptr inbounds nuw %struct.AVFilterLink, ptr %33, i32 0, i32 5
  %35 = load i32, ptr %34, align 4, !tbaa !170
  %36 = icmp ne i32 %32, %35
  %37 = zext i1 %36 to i32
  store i32 %37, ptr %15, align 4, !tbaa !26
  %38 = load ptr, ptr %5, align 8, !tbaa !162
  %39 = getelementptr inbounds nuw %struct.AVCodecContext, ptr %38, i32 0, i32 2
  %40 = load i32, ptr %39, align 4, !tbaa !171
  switch i32 %40, label %76 [
    i32 0, label %41
    i32 1, label %57
  ]

41:                                               ; preds = %3
  %42 = load i32, ptr %11, align 4, !tbaa !26
  %43 = load ptr, ptr %10, align 8, !tbaa !120
  %44 = getelementptr inbounds nuw %struct.AVFilterLink, ptr %43, i32 0, i32 6
  %45 = load i32, ptr %44, align 8, !tbaa !144
  %46 = icmp ne i32 %42, %45
  br i1 %46, label %53, label %47

47:                                               ; preds = %41
  %48 = load i32, ptr %12, align 4, !tbaa !26
  %49 = load ptr, ptr %10, align 8, !tbaa !120
  %50 = getelementptr inbounds nuw %struct.AVFilterLink, ptr %49, i32 0, i32 7
  %51 = load i32, ptr %50, align 4, !tbaa !146
  %52 = icmp ne i32 %48, %51
  br i1 %52, label %53, label %56

53:                                               ; preds = %47, %41
  %54 = load i32, ptr %15, align 4, !tbaa !26
  %55 = or i32 %54, 1
  store i32 %55, ptr %15, align 4, !tbaa !26
  br label %56

56:                                               ; preds = %53, %47
  br label %76

57:                                               ; preds = %3
  %58 = load ptr, ptr %10, align 8, !tbaa !120
  %59 = getelementptr inbounds nuw %struct.AVFilterLink, ptr %58, i32 0, i32 11
  %60 = load i32, ptr %59, align 8, !tbaa !172
  %61 = load ptr, ptr %6, align 8, !tbaa !163
  %62 = getelementptr inbounds nuw %struct.AVFrame, ptr %61, i32 0, i32 15
  %63 = load i32, ptr %62, align 4, !tbaa !173
  %64 = icmp ne i32 %60, %63
  br i1 %64, label %72, label %65

65:                                               ; preds = %57
  %66 = load ptr, ptr %10, align 8, !tbaa !120
  %67 = getelementptr inbounds nuw %struct.AVFilterLink, ptr %66, i32 0, i32 12
  %68 = load ptr, ptr %6, align 8, !tbaa !163
  %69 = getelementptr inbounds nuw %struct.AVFrame, ptr %68, i32 0, i32 37
  %70 = call i32 @av_channel_layout_compare(ptr noundef %67, ptr noundef %69)
  %71 = icmp ne i32 %70, 0
  br i1 %71, label %72, label %75

72:                                               ; preds = %65, %57
  %73 = load i32, ptr %15, align 4, !tbaa !26
  %74 = or i32 %73, 1
  store i32 %74, ptr %15, align 4, !tbaa !26
  br label %75

75:                                               ; preds = %72, %65
  br label %76

76:                                               ; preds = %3, %75, %56
  %77 = load i32, ptr %15, align 4, !tbaa !26
  %78 = icmp ne i32 %77, 0
  br i1 %78, label %87, label %79

79:                                               ; preds = %76
  %80 = load ptr, ptr %5, align 8, !tbaa !162
  %81 = getelementptr inbounds nuw %struct.AVCodecContext, ptr %80, i32 0, i32 3
  %82 = load ptr, ptr %81, align 8, !tbaa !174
  %83 = getelementptr inbounds nuw %struct.AVCodec, ptr %82, i32 0, i32 4
  %84 = load i32, ptr %83, align 8, !tbaa !175
  %85 = and i32 %84, 2
  %86 = icmp ne i32 %85, 0
  br i1 %86, label %92, label %87

87:                                               ; preds = %79, %76
  %88 = load ptr, ptr %5, align 8, !tbaa !162
  %89 = load ptr, ptr %6, align 8, !tbaa !163
  %90 = load i32, ptr %7, align 4, !tbaa !26
  %91 = call i32 @avcodec_default_get_buffer2(ptr noundef %88, ptr noundef %89, i32 noundef %90)
  store i32 %91, ptr %4, align 4
  store i32 1, ptr %17, align 4
  br label %123

92:                                               ; preds = %79
  %93 = load ptr, ptr %5, align 8, !tbaa !162
  %94 = getelementptr inbounds nuw %struct.AVCodecContext, ptr %93, i32 0, i32 2
  %95 = load i32, ptr %94, align 4, !tbaa !171
  switch i32 %95, label %109 [
    i32 0, label %96
    i32 1, label %103
  ]

96:                                               ; preds = %92
  %97 = load ptr, ptr %5, align 8, !tbaa !162
  %98 = getelementptr inbounds [8 x i32], ptr %8, i64 0, i64 0
  call void @avcodec_align_dimensions2(ptr noundef %97, ptr noundef %11, ptr noundef %12, ptr noundef %98)
  %99 = load ptr, ptr %10, align 8, !tbaa !120
  %100 = load i32, ptr %11, align 4, !tbaa !26
  %101 = load i32, ptr %12, align 4, !tbaa !26
  %102 = call ptr @ff_default_get_video_buffer(ptr noundef %99, i32 noundef %100, i32 noundef %101)
  store ptr %102, ptr %16, align 8, !tbaa !163
  br label %110

103:                                              ; preds = %92
  %104 = load ptr, ptr %10, align 8, !tbaa !120
  %105 = load ptr, ptr %6, align 8, !tbaa !163
  %106 = getelementptr inbounds nuw %struct.AVFrame, ptr %105, i32 0, i32 5
  %107 = load i32, ptr %106, align 8, !tbaa !180
  %108 = call ptr @ff_default_get_audio_buffer(ptr noundef %104, i32 noundef %107)
  store ptr %108, ptr %16, align 8, !tbaa !163
  br label %110

109:                                              ; preds = %92
  store i32 -1, ptr %4, align 4
  store i32 1, ptr %17, align 4
  br label %123

110:                                              ; preds = %103, %96
  %111 = load ptr, ptr %16, align 8, !tbaa !163
  %112 = load ptr, ptr %6, align 8, !tbaa !163
  %113 = call i32 @av_frame_copy_props(ptr noundef %111, ptr noundef %112)
  %114 = load ptr, ptr %6, align 8, !tbaa !163
  call void @av_frame_unref(ptr noundef %114)
  %115 = load ptr, ptr %6, align 8, !tbaa !163
  %116 = load ptr, ptr %16, align 8, !tbaa !163
  call void @av_frame_move_ref(ptr noundef %115, ptr noundef %116)
  call void @av_frame_free(ptr noundef %16)
  %117 = load i32, ptr %13, align 4, !tbaa !26
  %118 = load ptr, ptr %6, align 8, !tbaa !163
  %119 = getelementptr inbounds nuw %struct.AVFrame, ptr %118, i32 0, i32 3
  store i32 %117, ptr %119, align 8, !tbaa !168
  %120 = load i32, ptr %14, align 4, !tbaa !26
  %121 = load ptr, ptr %6, align 8, !tbaa !163
  %122 = getelementptr inbounds nuw %struct.AVFrame, ptr %121, i32 0, i32 4
  store i32 %120, ptr %122, align 4, !tbaa !164
  store i32 0, ptr %4, align 4
  store i32 1, ptr %17, align 4
  br label %123

123:                                              ; preds = %110, %109, %87
  call void @llvm.lifetime.end.p0(i64 8, ptr %16) #11
  call void @llvm.lifetime.end.p0(i64 4, ptr %15) #11
  call void @llvm.lifetime.end.p0(i64 4, ptr %14) #11
  call void @llvm.lifetime.end.p0(i64 4, ptr %13) #11
  call void @llvm.lifetime.end.p0(i64 4, ptr %12) #11
  call void @llvm.lifetime.end.p0(i64 4, ptr %11) #11
  call void @llvm.lifetime.end.p0(i64 8, ptr %10) #11
  call void @llvm.lifetime.end.p0(i64 8, ptr %9) #11
  call void @llvm.lifetime.end.p0(i64 32, ptr %8) #11
  %124 = load i32, ptr %4, align 4
  ret i32 %124
}