; Function Attrs: nounwind uwtable
define internal i32 @get_buffer(ptr noundef %0, ptr noundef %1, i32 noundef %2) #1 {
  %4 = alloca [8 x i32], align 16
  %5 = alloca i32, align 4
  %6 = alloca i32, align 4
  %7 = alloca ptr, align 8
  call void @llvm.lifetime.start.p0(i64 32, ptr nonnull %4) #13
  %8 = getelementptr inbounds nuw i8, ptr %0, i64 48
  %9 = load ptr, ptr %8, align 8, !tbaa !137
  %10 = load ptr, ptr %9, align 8, !tbaa !134
  call void @llvm.lifetime.start.p0(i64 4, ptr nonnull %5) #13
  call void @llvm.lifetime.start.p0(i64 4, ptr nonnull %6) #13
  call void @llvm.lifetime.start.p0(i64 8, ptr nonnull %7) #13
  %11 = getelementptr inbounds nuw i8, ptr %1, i64 108
  %12 = load i32, ptr %11, align 4, !tbaa !147
  store i32 %12, ptr %6, align 4, !tbaa !68
  %13 = getelementptr inbounds nuw i8, ptr %1, i64 104
  %14 = load i32, ptr %13, align 8, !tbaa !151
  store i32 %14, ptr %5, align 4, !tbaa !68
  %15 = getelementptr inbounds nuw i8, ptr %1, i64 116
  %16 = load i32, ptr %15, align 4, !tbaa !152
  %17 = getelementptr inbounds nuw i8, ptr %10, i64 36
  %18 = load i32, ptr %17, align 4, !tbaa !153
  %19 = icmp ne i32 %16, %18
  %20 = getelementptr inbounds nuw i8, ptr %0, i64 12
  %21 = load i32, ptr %20, align 4, !tbaa !154
  switch i32 %21, label %37 [
    i32 0, label %22
    i32 1, label %28
  ]

22:                                               ; preds = %3
  %23 = getelementptr inbounds nuw i8, ptr %10, i64 40
  %24 = load i32, ptr %23, align 8, !tbaa !131
  %.not34 = icmp eq i32 %14, %24
  br i1 %.not34, label %25, label %.critedge

25:                                               ; preds = %22
  %26 = getelementptr inbounds nuw i8, ptr %10, i64 44
  %27 = load i32, ptr %26, align 4, !tbaa !133
  %.not35 = icmp ne i32 %12, %27
  %brmerge37 = select i1 %.not35, i1 true, i1 %19
  br i1 %brmerge37, label %.critedge, label %38

28:                                               ; preds = %3
  %29 = getelementptr inbounds nuw i8, ptr %10, i64 64
  %30 = load i32, ptr %29, align 8, !tbaa !155
  %31 = getelementptr inbounds nuw i8, ptr %1, i64 180
  %32 = load i32, ptr %31, align 4, !tbaa !156
  %.not = icmp eq i32 %30, %32
  br i1 %.not, label %33, label %.critedge

33:                                               ; preds = %28
  %34 = getelementptr inbounds nuw i8, ptr %10, i64 72
  %35 = getelementptr inbounds nuw i8, ptr %1, i64 384
  %36 = tail call i32 @av_channel_layout_compare(ptr noundef nonnull %34, ptr noundef nonnull %35) #13
  %.not33 = icmp ne i32 %36, 0
  %brmerge = select i1 %.not33, i1 true, i1 %19
  br i1 %brmerge, label %.critedge, label %38

37:                                               ; preds = %3
  br i1 %19, label %.critedge, label %38

38:                                               ; preds = %25, %33, %37
  %39 = getelementptr inbounds nuw i8, ptr %0, i64 16
  %40 = load ptr, ptr %39, align 8, !tbaa !157
  %41 = getelementptr inbounds nuw i8, ptr %40, i64 24
  %42 = load i32, ptr %41, align 8, !tbaa !158
  %43 = and i32 %42, 2
  %.not36 = icmp eq i32 %43, 0
  br i1 %.not36, label %.critedge, label %45

.critedge:                                        ; preds = %25, %33, %28, %22, %38, %37
  %44 = tail call i32 @avcodec_default_get_buffer2(ptr noundef nonnull %0, ptr noundef nonnull %1, i32 noundef %2) #13
  br label %57

45:                                               ; preds = %38
  %46 = load i32, ptr %20, align 4, !tbaa !154
  switch i32 %46, label %57 [
    i32 0, label %47
    i32 1, label %51
  ]

47:                                               ; preds = %45
  call void @avcodec_align_dimensions2(ptr noundef nonnull %0, ptr noundef nonnull %5, ptr noundef nonnull %6, ptr noundef nonnull %4) #13
  %48 = load i32, ptr %5, align 4, !tbaa !68
  %49 = load i32, ptr %6, align 4, !tbaa !68
  %50 = call ptr @ff_default_get_video_buffer(ptr noundef nonnull %10, i32 noundef %48, i32 noundef %49) #13
  br label %55

51:                                               ; preds = %45
  %52 = getelementptr inbounds nuw i8, ptr %1, i64 112
  %53 = load i32, ptr %52, align 8, !tbaa !163
  %54 = tail call ptr @ff_default_get_audio_buffer(ptr noundef nonnull %10, i32 noundef %53) #13
  br label %55

55:                                               ; preds = %51, %47
  %storemerge = phi ptr [ %54, %51 ], [ %50, %47 ]
  store ptr %storemerge, ptr %7, align 8, !tbaa !164
  %56 = call i32 @av_frame_copy_props(ptr noundef %storemerge, ptr noundef nonnull %1) #13
  call void @av_frame_unref(ptr noundef nonnull %1) #13
  call void @av_frame_move_ref(ptr noundef nonnull %1, ptr noundef %storemerge) #13
  call void @av_frame_free(ptr noundef nonnull %7) #13
  store i32 %14, ptr %13, align 8, !tbaa !151
  store i32 %12, ptr %11, align 4, !tbaa !147
  br label %57

57:                                               ; preds = %45, %55, %.critedge
  %.032 = phi i32 [ %44, %.critedge ], [ 0, %55 ], [ -1, %45 ]
  call void @llvm.lifetime.end.p0(i64 8, ptr nonnull %7) #13
  call void @llvm.lifetime.end.p0(i64 4, ptr nonnull %6) #13
  call void @llvm.lifetime.end.p0(i64 4, ptr nonnull %5) #13
  call void @llvm.lifetime.end.p0(i64 32, ptr nonnull %4) #13
  ret i32 %.032
}